; Function Attrs: nounwind uwtable
define noalias nonnull ptr @l_Lean_Elab_liftMacroM___at_Lean_Elab_Tactic_evalMatch___spec__1___lambda__4___boxed(ptr noundef %0, ptr noundef %1, ptr noundef %2, ptr noundef %3, ptr noundef %4, ptr noundef %5) #0 {
  %7 = tail call ptr @l_Lean_ResolveName_resolveGlobalName(ptr noundef %0, ptr noundef %1, ptr noundef %2, ptr noundef %3) #5
  tail call void @lean_inc_heartbeat() #5
  %8 = tail call noalias ptr @mi_malloc_small(i64 noundef 24) #5
  %9 = icmp eq ptr %8, null
  br i1 %9, label %10, label %l_Lean_Elab_liftMacroM___at_Lean_Elab_Tactic_evalMatch___spec__1___lambda__4.exit

10:                                               ; preds = %6
  tail call void @lean_internal_panic_out_of_memory() #6
  unreachable

l_Lean_Elab_liftMacroM___at_Lean_Elab_Tactic_evalMatch___spec__1___lambda__4.exit: ; preds = %6
  %11 = getelementptr inbounds nuw i8, ptr %8, i64 4
  store i32 1, ptr %8, align 4, !tbaa !4
  store i32 131096, ptr %11, align 4
  %12 = getelementptr inbounds nuw i8, ptr %8, i64 8
  store ptr %7, ptr %12, align 8, !tbaa !9
  %13 = getelementptr inbounds nuw i8, ptr %8, i64 16
  store ptr %5, ptr %13, align 8, !tbaa !9
  %14 = ptrtoint ptr %4 to i64
  %15 = and i64 %14, 1
  %.not = icmp eq i64 %15, 0
  br i1 %.not, label %16, label %lean_dec.exit

16:                                               ; preds = %l_Lean_Elab_liftMacroM___at_Lean_Elab_Tactic_evalMatch___spec__1___lambda__4.exit
  %17 = load i32, ptr %4, align 4, !tbaa !4
  %18 = icmp sgt i32 %17, 1
  br i1 %18, label %19, label %21, !prof !11

19:                                               ; preds = %16
  %20 = add nsw i32 %17, -1
  store i32 %20, ptr %4, align 4, !tbaa !4
  br label %lean_dec.exit

21:                                               ; preds = %16
  %.not.i = icmp eq i32 %17, 0
  br i1 %.not.i, label %lean_dec.exit, label %22

22:                                               ; preds = %21
  tail call void @lean_dec_ref_cold(ptr noundef nonnull %4) #5
  br label %lean_dec.exit

lean_dec.exit:                                    ; preds = %22, %21, %19, %l_Lean_Elab_liftMacroM___at_Lean_Elab_Tactic_evalMatch___spec__1___lambda__4.exit
  ret ptr %8
}